target datalayout = "e-m:e-p270:32:32-p271:32:32-p272:64:64-i64:64-i128:128-f80:128-n8:16:32:64-S128"
target triple = "x86_64-pc-linux-gnu"

%struct.ident_t = type { i32, i32, i32, i32, ptr }
%"class.LightGBM::RegressionL2loss" = type <{ %"class.LightGBM::ObjectiveFunction", i8, [3 x i8], i32, ptr, ptr, %"class.std::vector", i8, [7 x i8] }>
%"class.LightGBM::ObjectiveFunction" = type { ptr }
%"class.std::vector" = type { %"struct.std::_Vector_base" }
%"struct.std::_Vector_base" = type { %"struct.std::_Vector_base<float, std::allocator<float>>::_Vector_impl" }
%"struct.std::_Vector_base<float, std::allocator<float>>::_Vector_impl" = type { %"struct.std::_Vector_base<float, std::allocator<float>>::_Vector_impl_data" }
%"struct.std::_Vector_base<float, std::allocator<float>>::_Vector_impl_data" = type { ptr, ptr, ptr }

@1 = private unnamed_addr constant %struct.ident_t { i32 0, i32 514, i32 0, i32 22, ptr @0 }, align 8

; Function Attrs: noinline noreturn nounwind uwtable
define linkonce_odr hidden void @__clang_call_terminate(ptr noundef %0) #10 comdat {
  %2 = call ptr @__cxa_begin_catch(ptr %0) #3
  call void @_ZSt9terminatev() #29
  unreachable
}

; Function Attrs: mustprogress nounwind uwtable
define linkonce_odr noundef nonnull align 4 dereferenceable(4) ptr @_ZNSt6vectorIfSaIfEEixEm(ptr noundef nonnull align 8 dereferenceable(24) %0, i64 noundef %1) #7 comdat align 2 {
  %3 = alloca ptr, align 8
  %4 = alloca i64, align 8
  store ptr %0, ptr %3, align 8, !tbaa !184
  store i64 %1, ptr %4, align 8, !tbaa !166
  %5 = load ptr, ptr %3, align 8
  %6 = getelementptr inbounds nuw %"struct.std::_Vector_base", ptr %5, i32 0, i32 0
  %7 = getelementptr inbounds nuw %"struct.std::_Vector_base<float, std::allocator<float>>::_Vector_impl_data", ptr %6, i32 0, i32 0
  %8 = load ptr, ptr %7, align 8, !tbaa !203
  %9 = load i64, ptr %4, align 8, !tbaa !166
  %10 = getelementptr inbounds nuw float, ptr %8, i64 %9
  ret ptr %10
}

; Function Attrs: inlinehint mustprogress nounwind uwtable
define linkonce_odr noundef float @_ZSt4sqrtf(float noundef %0) #5 comdat {
  %2 = alloca float, align 4
  store float %0, ptr %2, align 4, !tbaa !210
  %3 = load float, ptr %2, align 4, !tbaa !210
  %4 = call float @sqrtf(float noundef %3) #3, !tbaa !141
  ret float %4
}

; Function Attrs: inlinehint mustprogress nounwind uwtable
define linkonce_odr noundef float @_ZSt4fabsf(float noundef %0) #5 comdat {
  %2 = alloca float, align 4
  store float %0, ptr %2, align 4, !tbaa !210
  %3 = load float, ptr %2, align 4, !tbaa !210
  %4 = call float @llvm.fabs.f32(float %3)
  ret float %4
}

; Function Attrs: mustprogress nounwind uwtable
define internal noundef i32 @_ZN8LightGBM6CommonL4SignIfEEiT_(float noundef %0) #7 {
  %2 = alloca float, align 4
  store float %0, ptr %2, align 4, !tbaa !210
  %3 = load float, ptr %2, align 4, !tbaa !210
  %4 = fcmp ogt float %3, 0.000000e+00
  %5 = zext i1 %4 to i32
  %6 = load float, ptr %2, align 4, !tbaa !210
  %7 = fcmp olt float %6, 0.000000e+00
  %8 = zext i1 %7 to i32
  %9 = sub nsw i32 %5, %8
  ret i32 %9
}

; Function Attrs: alwaysinline norecurse nounwind uwtable
define internal void @_ZN8LightGBM16RegressionL2loss4InitERKNS_8MetadataEi.omp_outlined(ptr noalias noundef %0, ptr noalias noundef %1, ptr noundef nonnull align 4 dereferenceable(4) %2, ptr noundef %3) #16 personality ptr @__gxx_personality_v0 {
  %5 = alloca ptr, align 8
  %6 = alloca ptr, align 8
  %7 = alloca ptr, align 8
  %8 = alloca ptr, align 8
  %9 = alloca i32, align 4
  %10 = alloca i32, align 4
  %11 = alloca i32, align 4
  %12 = alloca i32, align 4
  %13 = alloca i32, align 4
  %14 = alloca i32, align 4
  %15 = alloca i32, align 4
  %16 = alloca i32, align 4
  %17 = alloca i32, align 4
  store ptr %0, ptr %5, align 8, !tbaa !193
  store ptr %1, ptr %6, align 8, !tbaa !193
  store ptr %2, ptr %7, align 8, !tbaa !193
  store ptr %3, ptr %8, align 8, !tbaa !17
  %18 = load ptr, ptr %7, align 8, !tbaa !193
  %19 = load ptr, ptr %8, align 8, !tbaa !17
  call void @llvm.lifetime.start.p0(i64 4, ptr %9) #3
  call void @llvm.lifetime.start.p0(i64 4, ptr %10) #3
  %20 = load i32, ptr %18, align 4, !tbaa !141
  store i32 %20, ptr %10, align 4, !tbaa !141
  call void @llvm.lifetime.start.p0(i64 4, ptr %11) #3
  %21 = load i32, ptr %10, align 4, !tbaa !141
  %22 = sub nsw i32 %21, 0
  %23 = sdiv i32 %22, 1
  %24 = sub nsw i32 %23, 1
  store i32 %24, ptr %11, align 4, !tbaa !141
  call void @llvm.lifetime.start.p0(i64 4, ptr %12) #3
  store i32 0, ptr %12, align 4, !tbaa !141
  call void @llvm.lifetime.end.p0(i64 4, ptr %12) #3
  %25 = load i32, ptr %10, align 4, !tbaa !141
  %26 = icmp slt i32 0, %25
  br i1 %26, label %27, label %82

27:                                               ; preds = %4
  call void @llvm.lifetime.start.p0(i64 4, ptr %13) #3
  store i32 0, ptr %13, align 4, !tbaa !141
  call void @llvm.lifetime.start.p0(i64 4, ptr %14) #3
  %28 = load i32, ptr %11, align 4, !tbaa !141
  store i32 %28, ptr %14, align 4, !tbaa !141
  call void @llvm.lifetime.start.p0(i64 4, ptr %15) #3
  store i32 1, ptr %15, align 4, !tbaa !141
  call void @llvm.lifetime.start.p0(i64 4, ptr %16) #3
  store i32 0, ptr %16, align 4, !tbaa !141
  call void @llvm.lifetime.start.p0(i64 4, ptr %17) #3
  %29 = load ptr, ptr %5, align 8
  %30 = load i32, ptr %29, align 4, !tbaa !141
  call void @__kmpc_for_static_init_4(ptr @1, i32 %30, i32 34, ptr %16, ptr %13, ptr %14, ptr %15, i32 1, i32 1)
  %31 = load i32, ptr %14, align 4, !tbaa !141
  %32 = load i32, ptr %11, align 4, !tbaa !141
  %33 = icmp sgt i32 %31, %32
  br i1 %33, label %34, label %36

34:                                               ; preds = %27
  %35 = load i32, ptr %11, align 4, !tbaa !141
  br label %38

36:                                               ; preds = %27
  %37 = load i32, ptr %14, align 4, !tbaa !141
  br label %38

38:                                               ; preds = %36, %34
  %39 = phi i32 [ %35, %34 ], [ %37, %36 ]
  store i32 %39, ptr %14, align 4, !tbaa !141
  %40 = load i32, ptr %13, align 4, !tbaa !141
  store i32 %40, ptr %9, align 4, !tbaa !141
  br label %41

41:                                               ; preds = %75, %38
  %42 = load i32, ptr %9, align 4, !tbaa !141
  %43 = load i32, ptr %14, align 4, !tbaa !141
  %44 = icmp sle i32 %42, %43
  br i1 %44, label %46, label %45

45:                                               ; preds = %41
  br label %78

46:                                               ; preds = %41
  %47 = load i32, ptr %9, align 4, !tbaa !141
  %48 = mul nsw i32 %47, 1
  %49 = add nsw i32 0, %48
  store i32 %49, ptr %17, align 4, !tbaa !141
  %50 = getelementptr inbounds nuw %"class.LightGBM::RegressionL2loss", ptr %19, i32 0, i32 4
  %51 = load ptr, ptr %50, align 8, !tbaa !189
  %52 = load i32, ptr %17, align 4, !tbaa !141
  %53 = sext i32 %52 to i64
  %54 = getelementptr inbounds float, ptr %51, i64 %53
  %55 = load float, ptr %54, align 4, !tbaa !210
  %56 = invoke noundef i32 @_ZN8LightGBM6CommonL4SignIfEEiT_(float noundef %55)
          to label %57 unwind label %83

57:                                               ; preds = %46
  %58 = sitofp i32 %56 to float
  %59 = getelementptr inbounds nuw %"class.LightGBM::RegressionL2loss", ptr %19, i32 0, i32 4
  %60 = load ptr, ptr %59, align 8, !tbaa !189
  %61 = load i32, ptr %17, align 4, !tbaa !141
  %62 = sext i32 %61 to i64
  %63 = getelementptr inbounds float, ptr %60, i64 %62
  %64 = load float, ptr %63, align 4, !tbaa !210
  %65 = invoke noundef float @_ZSt4fabsf(float noundef %64)
          to label %66 unwind label %83

66:                                               ; preds = %57
  %67 = invoke noundef float @_ZSt4sqrtf(float noundef %65)
          to label %68 unwind label %83

68:                                               ; preds = %66
  %69 = fmul float %58, %67
  %70 = getelementptr inbounds nuw %"class.LightGBM::RegressionL2loss", ptr %19, i32 0, i32 6
  %71 = load i32, ptr %17, align 4, !tbaa !141
  %72 = sext i32 %71 to i64
  %73 = call noundef nonnull align 4 dereferenceable(4) ptr @_ZNSt6vectorIfSaIfEEixEm(ptr noundef nonnull align 8 dereferenceable(24) %70, i64 noundef %72) #3
  store float %69, ptr %73, align 4, !tbaa !210
  br label %74

74:                                               ; preds = %68
  br label %75

75:                                               ; preds = %74
  %76 = load i32, ptr %9, align 4, !tbaa !141
  %77 = add nsw i32 %76, 1
  store i32 %77, ptr %9, align 4, !tbaa !141
  br label %41

78:                                               ; preds = %45
  br label %79

79:                                               ; preds = %78
  %80 = load ptr, ptr %5, align 8
  %81 = load i32, ptr %80, align 4, !tbaa !141
  call void @__kmpc_for_static_fini(ptr @1, i32 %81)
  call void @llvm.lifetime.end.p0(i64 4, ptr %17) #3
  call void @llvm.lifetime.end.p0(i64 4, ptr %16) #3
  call void @llvm.lifetime.end.p0(i64 4, ptr %15) #3
  call void @llvm.lifetime.end.p0(i64 4, ptr %14) #3
  call void @llvm.lifetime.end.p0(i64 4, ptr %13) #3
  br label %82

82:                                               ; preds = %79, %4
  call void @llvm.lifetime.end.p0(i64 4, ptr %11) #3
  call void @llvm.lifetime.end.p0(i64 4, ptr %10) #3
  call void @llvm.lifetime.end.p0(i64 4, ptr %9) #3
  ret void

83:                                               ; preds = %66, %57, %46
  %84 = landingpad { ptr, i32 }
          catch ptr null
  %85 = extractvalue { ptr, i32 } %84, 0
  call void @__clang_call_terminate(ptr %85) #29
  unreachable
}