; Function Attrs: alwaysinline norecurse nounwind uwtable
define internal void @_ZN8LightGBM16RegressionL2loss4InitERKNS_8MetadataEi.omp_outlined(ptr noalias noundef readonly captures(none) %0, ptr noalias readnone captures(none) %1, ptr noundef nonnull readonly align 4 captures(none) dereferenceable(4) %2, ptr noundef readonly captures(none) %3) #14 personality ptr @__gxx_personality_v0 {
  %5 = alloca i32, align 4
  %6 = alloca i32, align 4
  %7 = alloca i32, align 4
  %8 = alloca i32, align 4
  %9 = load i32, ptr %2, align 4, !tbaa !127
  %10 = icmp sgt i32 %9, 0
  br i1 %10, label %11, label %34

11:                                               ; preds = %4
  %12 = add nsw i32 %9, -1
  call void @llvm.lifetime.start.p0(i64 4, ptr nonnull %5) #15
  store i32 0, ptr %5, align 4, !tbaa !127
  call void @llvm.lifetime.start.p0(i64 4, ptr nonnull %6) #15
  store i32 %12, ptr %6, align 4, !tbaa !127
  call void @llvm.lifetime.start.p0(i64 4, ptr nonnull %7) #15
  store i32 1, ptr %7, align 4, !tbaa !127
  call void @llvm.lifetime.start.p0(i64 4, ptr nonnull %8) #15
  store i32 0, ptr %8, align 4, !tbaa !127
  %13 = load i32, ptr %0, align 4, !tbaa !127
  call void @__kmpc_for_static_init_4(ptr nonnull @1, i32 %13, i32 34, ptr nonnull %8, ptr nonnull %5, ptr nonnull %6, ptr nonnull %7, i32 1, i32 1)
  %14 = load i32, ptr %6, align 4, !tbaa !127
  %15 = call i32 @llvm.smin.i32(i32 %14, i32 %12)
  store i32 %15, ptr %6, align 4, !tbaa !127
  %16 = load i32, ptr %5, align 4, !tbaa !127
  %.not14 = icmp sgt i32 %16, %15
  br i1 %.not14, label %._crit_edge, label %.lr.ph

.lr.ph:                                           ; preds = %11
  %17 = getelementptr inbounds nuw i8, ptr %3, i64 16
  %18 = load ptr, ptr %17, align 8, !tbaa !148
  %19 = getelementptr inbounds nuw i8, ptr %3, i64 32
  %20 = load ptr, ptr %19, align 8, !tbaa !95
  %21 = sext i32 %16 to i64
  %22 = add nsw i32 %15, 1
  br label %23

23:                                               ; preds = %.lr.ph, %23
  %indvars.iv = phi i64 [ %21, %.lr.ph ], [ %indvars.iv.next, %23 ]
  %24 = getelementptr inbounds float, ptr %18, i64 %indvars.iv
  %25 = load float, ptr %24, align 4, !tbaa !175
  %26 = fcmp ogt float %25, 0.000000e+00
  %27 = zext i1 %26 to i32
  %28 = fcmp olt float %25, 0.000000e+00
  %.neg.i = sext i1 %28 to i32
  %29 = add nsw i32 %.neg.i, %27
  %30 = sitofp i32 %29 to float
  %31 = call noundef float @llvm.fabs.f32(float %25)
  %sqrt = call float @llvm.sqrt.f32(float %31)
  %32 = fmul float %sqrt, %30
  %33 = getelementptr inbounds nuw float, ptr %20, i64 %indvars.iv
  store float %32, ptr %33, align 4, !tbaa !175
  %indvars.iv.next = add nsw i64 %indvars.iv, 1
  %lftr.wideiv = trunc i64 %indvars.iv.next to i32
  %exitcond.not = icmp eq i32 %22, %lftr.wideiv
  br i1 %exitcond.not, label %._crit_edge, label %23

._crit_edge:                                      ; preds = %23, %11
  call void @__kmpc_for_static_fini(ptr nonnull @1, i32 %13)
  call void @llvm.lifetime.end.p0(i64 4, ptr nonnull %8) #15
  call void @llvm.lifetime.end.p0(i64 4, ptr nonnull %7) #15
  call void @llvm.lifetime.end.p0(i64 4, ptr nonnull %6) #15
  call void @llvm.lifetime.end.p0(i64 4, ptr nonnull %5) #15
  br label %34

34:                                               ; preds = %._crit_edge, %4
  ret void
}